; Function Attrs: mustprogress nofree norecurse nosync nounwind willreturn memory(write, argmem: readwrite, inaccessiblemem: none) uwtable
define hidden void @_ZN3mbp20arith_project_plugin18set_check_purifiedEb(ptr nocapture noundef nonnull readonly align 8 dereferenceable(152) %this, i1 noundef zeroext %check_purified) local_unnamed_addr #7 align 2 {
entry:
  %frombool = zext i1 %check_purified to i8
  %m_imp = getelementptr inbounds i8, ptr %this, i64 144
  %0 = load ptr, ptr %m_imp, align 8
  %m_check_purified = getelementptr inbounds i8, ptr %0, i64 24
  store i8 %frombool, ptr %m_check_purified, align 8
  ret void
}